target datalayout = "e-m:e-p270:32:32-p271:32:32-p272:64:64-i64:64-i128:128-f80:128-n8:16:32:64-S128"
target triple = "x86_64-pc-linux-gnu"

%struct._packet_info = type { ptr, ptr, i32, i32, %struct.nstime_t, %struct.nstime_t, %struct.nstime_t, i8, ptr, ptr, ptr, ptr, %struct._address, %struct._address, %struct._address, %struct._address, %struct._address, %struct._address, i32, ptr, i8, [3 x i8], %struct.anon, i32, i32, i32, i32, ptr, i8, ptr, ptr, i16, i16, i32, i32, i16, i32, i32, ptr, ptr, ptr, i8, i8, i16, i16, i16, i32, i16, i16, ptr, ptr, ptr, ptr, ptr, i32, i32 }
%struct.nstime_t = type { i64, i32 }
%struct._address = type { i32, i32, ptr, ptr }
%struct.anon = type { i8, [3 x i8] }

@ett_scte35_time_signal = internal global i32 0, align 4
@hf_time_specified = internal global i32 0, align 4
@hf_time_reserved = internal global i32 0, align 4
@hf_time_pts = internal global i32 0, align 4
@proto_scte35_time = internal global i32 0, align 4
@.str.173 = private unnamed_addr constant [17 x i8] c"Time Signal (%s)\00", align 1
@.str.174 = private unnamed_addr constant [7 x i8] c"Future\00", align 1
@.str.175 = private unnamed_addr constant [10 x i8] c"Immediate\00", align 1

; Function Attrs: null_pointer_is_valid sspstrong uwtable
define internal i32 @dissect_scte35_time_signal(ptr noundef %0, ptr noundef %1, ptr noundef %2, ptr noundef %3) #0 {
  %5 = alloca i32, align 4
  %6 = alloca ptr, align 8
  %7 = alloca ptr, align 8
  %8 = alloca ptr, align 8
  %9 = alloca ptr, align 8
  %10 = alloca i32, align 4
  %11 = alloca i32, align 4
  %12 = alloca i32, align 4
  %13 = alloca i8, align 1
  %14 = alloca ptr, align 8
  %15 = alloca ptr, align 8
  %16 = alloca i32, align 4
  store ptr %0, ptr %6, align 8
  store ptr %1, ptr %7, align 8
  store ptr %2, ptr %8, align 8
  store ptr %3, ptr %9, align 8
  call void @llvm.lifetime.start.p0(i64 4, ptr %10) #3
  call void @llvm.lifetime.start.p0(i64 4, ptr %11) #3
  store i32 1, ptr %11, align 4
  call void @llvm.lifetime.start.p0(i64 4, ptr %12) #3
  store i32 0, ptr %12, align 4
  call void @llvm.lifetime.start.p0(i64 1, ptr %13) #3
  call void @llvm.lifetime.start.p0(i64 8, ptr %14) #3
  call void @llvm.lifetime.start.p0(i64 8, ptr %15) #3
  %17 = load ptr, ptr %6, align 8
  %18 = call i32 @tvb_reported_length(ptr noundef %17)
  store i32 %18, ptr %10, align 4
  %19 = load i32, ptr %10, align 4
  %20 = load i32, ptr %11, align 4
  %21 = icmp slt i32 %19, %20
  br i1 %21, label %22, label %23

22:                                               ; preds = %4
  store i32 0, ptr %5, align 4
  store i32 1, ptr %16, align 4
  br label %79

23:                                               ; preds = %4
  %24 = load ptr, ptr %6, align 8
  %25 = load i32, ptr %12, align 4
  %26 = call zeroext i8 @tvb_get_uint8(ptr noundef %24, i32 noundef %25)
  %27 = zext i8 %26 to i32
  %28 = and i32 %27, 128
  %29 = trunc i32 %28 to i8
  store i8 %29, ptr %13, align 1
  %30 = load i8, ptr %13, align 1
  %31 = icmp ne i8 %30, 0
  br i1 %31, label %32, label %35

32:                                               ; preds = %23
  %33 = load i32, ptr %11, align 4
  %34 = add i32 %33, 4
  store i32 %34, ptr %11, align 4
  br label %35

35:                                               ; preds = %32, %23
  %36 = load i32, ptr %10, align 4
  %37 = load i32, ptr %11, align 4
  %38 = icmp slt i32 %36, %37
  br i1 %38, label %39, label %40

39:                                               ; preds = %35
  store i32 0, ptr %5, align 4
  store i32 1, ptr %16, align 4
  br label %79

40:                                               ; preds = %35
  %41 = load ptr, ptr %7, align 8
  %42 = getelementptr inbounds nuw %struct._packet_info, ptr %41, i32 0, i32 1
  %43 = load ptr, ptr %42, align 8
  %44 = load i8, ptr %13, align 1
  %45 = zext i8 %44 to i32
  %46 = icmp ne i32 %45, 0
  %47 = select i1 %46, ptr @.str.174, ptr @.str.175
  call void (ptr, i32, ptr, ...) @col_add_fstr(ptr noundef %43, i32 noundef 25, ptr noundef @.str.173, ptr noundef %47)
  %48 = load ptr, ptr %8, align 8
  %49 = load i32, ptr @proto_scte35_time, align 4
  %50 = load ptr, ptr %6, align 8
  %51 = call ptr @proto_tree_add_item(ptr noundef %48, i32 noundef %49, ptr noundef %50, i32 noundef 0, i32 noundef -1, i32 noundef 0)
  store ptr %51, ptr %14, align 8
  %52 = load ptr, ptr %14, align 8
  %53 = load i32, ptr @ett_scte35_time_signal, align 4
  %54 = call ptr @proto_item_add_subtree(ptr noundef %52, i32 noundef %53)
  store ptr %54, ptr %15, align 8
  %55 = load ptr, ptr %15, align 8
  %56 = load i32, ptr @hf_time_specified, align 4
  %57 = load ptr, ptr %6, align 8
  %58 = load i32, ptr %12, align 4
  %59 = call ptr @proto_tree_add_item(ptr noundef %55, i32 noundef %56, ptr noundef %57, i32 noundef %58, i32 noundef 1, i32 noundef 0)
  %60 = load ptr, ptr %15, align 8
  %61 = load i32, ptr @hf_time_reserved, align 4
  %62 = load ptr, ptr %6, align 8
  %63 = load i32, ptr %12, align 4
  %64 = call ptr @proto_tree_add_item(ptr noundef %60, i32 noundef %61, ptr noundef %62, i32 noundef %63, i32 noundef 1, i32 noundef 0)
  %65 = load i8, ptr %13, align 1
  %66 = icmp ne i8 %65, 0
  br i1 %66, label %67, label %75

67:                                               ; preds = %40
  %68 = load ptr, ptr %15, align 8
  %69 = load i32, ptr @hf_time_pts, align 4
  %70 = load ptr, ptr %6, align 8
  %71 = load i32, ptr %12, align 4
  %72 = call ptr @proto_tree_add_item(ptr noundef %68, i32 noundef %69, ptr noundef %70, i32 noundef %71, i32 noundef 5, i32 noundef 0)
  %73 = load i32, ptr %12, align 4
  %74 = add i32 %73, 4
  store i32 %74, ptr %12, align 4
  br label %75

75:                                               ; preds = %67, %40
  %76 = load i32, ptr %12, align 4
  %77 = add i32 %76, 1
  store i32 %77, ptr %12, align 4
  %78 = load i32, ptr %12, align 4
  store i32 %78, ptr %5, align 4
  store i32 1, ptr %16, align 4
  br label %79

79:                                               ; preds = %75, %39, %22
  call void @llvm.lifetime.end.p0(i64 8, ptr %15) #3
  call void @llvm.lifetime.end.p0(i64 8, ptr %14) #3
  call void @llvm.lifetime.end.p0(i64 1, ptr %13) #3
  call void @llvm.lifetime.end.p0(i64 4, ptr %12) #3
  call void @llvm.lifetime.end.p0(i64 4, ptr %11) #3
  call void @llvm.lifetime.end.p0(i64 4, ptr %10) #3
  %80 = load i32, ptr %5, align 4
  ret i32 %80
}