; Function Attrs: null_pointer_is_valid sspstrong uwtable
define internal range(i32 0, 6) i32 @dissect_scte35_time_signal(ptr noundef %0, ptr noundef readonly captures(none) %1, ptr noundef %2, ptr readnone captures(none) %3) #0 {
  %5 = tail call i32 @tvb_reported_length(ptr noundef %0)
  %6 = icmp slt i32 %5, 1
  br i1 %6, label %25, label %7

7:                                                ; preds = %4
  %8 = tail call zeroext i8 @tvb_get_uint8(ptr noundef %0, i32 noundef 0)
  %.not = icmp sgt i8 %8, -1
  %spec.select = select i1 %.not, i32 1, i32 5
  %9 = icmp samesign ult i32 %5, %spec.select
  br i1 %9, label %25, label %10

10:                                               ; preds = %7
  %11 = getelementptr inbounds nuw i8, ptr %1, i64 8
  %12 = load ptr, ptr %11, align 8
  %13 = select i1 %.not, ptr @.str.175, ptr @.str.174
  tail call void (ptr, i32, ptr, ...) @col_add_fstr(ptr noundef %12, i32 noundef 25, ptr noundef nonnull @.str.173, ptr noundef nonnull %13)
  %14 = load i32, ptr @proto_scte35_time, align 4
  %15 = tail call ptr @proto_tree_add_item(ptr noundef %2, i32 noundef %14, ptr noundef %0, i32 noundef 0, i32 noundef -1, i32 noundef 0)
  %16 = load i32, ptr @ett_scte35_time_signal, align 4
  %17 = tail call ptr @proto_item_add_subtree(ptr noundef %15, i32 noundef %16)
  %18 = load i32, ptr @hf_time_specified, align 4
  %19 = tail call ptr @proto_tree_add_item(ptr noundef %17, i32 noundef %18, ptr noundef %0, i32 noundef 0, i32 noundef 1, i32 noundef 0)
  %20 = load i32, ptr @hf_time_reserved, align 4
  %21 = tail call ptr @proto_tree_add_item(ptr noundef %17, i32 noundef %20, ptr noundef %0, i32 noundef 0, i32 noundef 1, i32 noundef 0)
  br i1 %.not, label %25, label %22

22:                                               ; preds = %10
  %23 = load i32, ptr @hf_time_pts, align 4
  %24 = tail call ptr @proto_tree_add_item(ptr noundef %17, i32 noundef %23, ptr noundef %0, i32 noundef 0, i32 noundef 5, i32 noundef 0)
  br label %25

25:                                               ; preds = %10, %22, %7, %4
  %.0 = phi i32 [ 0, %4 ], [ 0, %7 ], [ 5, %22 ], [ 1, %10 ]
  ret i32 %.0
}